target datalayout = "e-m:e-p270:32:32-p271:32:32-p272:64:64-i64:64-i128:128-f80:128-n8:16:32:64-S128"
target triple = "x86_64-pc-linux-gnu"

@PyExc_ValueError = external global ptr, align 8
@.str.15 = private unnamed_addr constant [23 x i8] c"missing config key: %s\00", align 1

; Function Attrs: inlinehint nounwind uwtable
define internal i32 @_config_dict_get(ptr noundef %0, ptr noundef %1, ptr noundef %2) #3 {
  %4 = alloca i32, align 4
  %5 = alloca ptr, align 8
  %6 = alloca ptr, align 8
  %7 = alloca ptr, align 8
  %8 = alloca ptr, align 8
  %9 = alloca i32, align 4
  store ptr %0, ptr %5, align 8, !tbaa !8
  store ptr %1, ptr %6, align 8, !tbaa !119
  store ptr %2, ptr %7, align 8, !tbaa !125
  call void @llvm.lifetime.start.p0(i64 8, ptr %8) #8
  %10 = load ptr, ptr %5, align 8, !tbaa !8
  %11 = load ptr, ptr %6, align 8, !tbaa !119
  %12 = call i32 @PyDict_GetItemStringRef(ptr noundef %10, ptr noundef %11, ptr noundef %8)
  %13 = icmp slt i32 %12, 0
  br i1 %13, label %14, label %15

14:                                               ; preds = %3
  store i32 -1, ptr %4, align 4
  store i32 1, ptr %9, align 4
  br label %22

15:                                               ; preds = %3
  %16 = load ptr, ptr %8, align 8, !tbaa !8
  %17 = icmp eq ptr %16, null
  br i1 %17, label %18, label %19

18:                                               ; preds = %15
  store i32 -1, ptr %4, align 4
  store i32 1, ptr %9, align 4
  br label %22

19:                                               ; preds = %15
  %20 = load ptr, ptr %8, align 8, !tbaa !8
  %21 = load ptr, ptr %7, align 8, !tbaa !125
  store ptr %20, ptr %21, align 8, !tbaa !8
  store i32 0, ptr %4, align 4
  store i32 1, ptr %9, align 4
  br label %22

22:                                               ; preds = %19, %18, %14
  call void @llvm.lifetime.end.p0(i64 8, ptr %8) #8
  %23 = load i32, ptr %4, align 4
  ret i32 %23
}

; Function Attrs: nounwind uwtable
define internal ptr @config_dict_get(ptr noundef %0, ptr noundef %1) #0 {
  %3 = alloca ptr, align 8
  %4 = alloca ptr, align 8
  %5 = alloca ptr, align 8
  %6 = alloca ptr, align 8
  %7 = alloca i32, align 4
  store ptr %0, ptr %4, align 8, !tbaa !8
  store ptr %1, ptr %5, align 8, !tbaa !119
  call void @llvm.lifetime.start.p0(i64 8, ptr %6) #8
  %8 = load ptr, ptr %4, align 8, !tbaa !8
  %9 = load ptr, ptr %5, align 8, !tbaa !119
  %10 = call i32 @_config_dict_get(ptr noundef %8, ptr noundef %9, ptr noundef %6)
  %11 = icmp slt i32 %10, 0
  br i1 %11, label %12, label %20

12:                                               ; preds = %2
  %13 = call ptr @PyErr_Occurred()
  %14 = icmp ne ptr %13, null
  br i1 %14, label %19, label %15

15:                                               ; preds = %12
  %16 = load ptr, ptr @PyExc_ValueError, align 8, !tbaa !8
  %17 = load ptr, ptr %5, align 8, !tbaa !119
  %18 = call ptr (ptr, ptr, ...) @PyErr_Format(ptr noundef %16, ptr noundef @.str.15, ptr noundef %17)
  br label %19

19:                                               ; preds = %15, %12
  store ptr null, ptr %3, align 8
  store i32 1, ptr %7, align 4
  br label %22

20:                                               ; preds = %2
  %21 = load ptr, ptr %6, align 8, !tbaa !8
  store ptr %21, ptr %3, align 8
  store i32 1, ptr %7, align 4
  br label %22

22:                                               ; preds = %20, %19
  call void @llvm.lifetime.end.p0(i64 8, ptr %6) #8
  %23 = load ptr, ptr %3, align 8
  ret ptr %23
}