; Function Attrs: nounwind uwtable
define internal fastcc void @config_dict_get(ptr noundef nonnull %0, ptr noundef %1) unnamed_addr #0 {
  %3 = alloca ptr, align 8
  call void @llvm.lifetime.start.p0(i64 8, ptr nonnull %3) #6
  %4 = call i32 @PyDict_GetItemStringRef(ptr noundef nonnull %0, ptr noundef %1, ptr noundef nonnull %3) #6
  %5 = icmp slt i32 %4, 0
  %6 = load ptr, ptr %3, align 8
  %7 = icmp eq ptr %6, null
  %or.cond = select i1 %5, i1 true, i1 %7
  call void @llvm.lifetime.end.p0(i64 8, ptr nonnull %3) #6
  br i1 %or.cond, label %8, label %13

8:                                                ; preds = %2
  %9 = call ptr @PyErr_Occurred() #6
  %.not = icmp eq ptr %9, null
  br i1 %.not, label %10, label %13

10:                                               ; preds = %8
  %11 = load ptr, ptr @PyExc_ValueError, align 8, !tbaa !16
  %12 = call ptr (ptr, ptr, ...) @PyErr_Format(ptr noundef %11, ptr noundef nonnull @.str.15, ptr noundef %1) #6
  br label %13

13:                                               ; preds = %2, %8, %10
  ret void
}